; Function Attrs: nounwind uwtable
define dso_local range(i64 -2147483648, 2147483648) i64 @be_lo_tell(ptr noundef readonly captures(none) %0) local_unnamed_addr #0 {
  %2 = getelementptr inbounds nuw i8, ptr %0, i64 32
  %3 = load i64, ptr %2, align 8
  %4 = trunc i64 %3 to i32
  %5 = icmp sgt i32 %4, -1
  %6 = load i32, ptr @cookies_size, align 4
  %.not = icmp sgt i32 %6, %4
  %or.cond = select i1 %5, i1 %.not, i1 false
  br i1 %or.cond, label %7, label %13

7:                                                ; preds = %1
  %8 = load ptr, ptr @cookies, align 8
  %9 = and i64 %3, 2147483647
  %10 = getelementptr inbounds nuw ptr, ptr %8, i64 %9
  %11 = load ptr, ptr %10, align 8
  %12 = icmp eq ptr %11, null
  br i1 %12, label %13, label %17

13:                                               ; preds = %7, %1
  %14 = tail call zeroext i1 @errstart_cold(i32 noundef 21, ptr noundef null) #11
  tail call void @llvm.assume(i1 %14)
  %15 = tail call i32 @errcode(i32 noundef 67137668) #10
  %16 = tail call i32 (ptr, ...) @errmsg(ptr noundef nonnull @.str.1, i32 noundef %4) #10
  tail call void @errfinish(ptr noundef nonnull @.str.2, i32 noundef 283, ptr noundef nonnull @__func__.be_lo_tell) #10
  unreachable

17:                                               ; preds = %7
  %18 = tail call i64 @inv_tell(ptr noundef nonnull %11) #10
  %19 = add i64 %18, 2147483648
  %.not10 = icmp ult i64 %19, 4294967296
  br i1 %.not10, label %24, label %20

20:                                               ; preds = %17
  %21 = tail call zeroext i1 @errstart_cold(i32 noundef 21, ptr noundef null) #11
  tail call void @llvm.assume(i1 %21)
  %22 = tail call i32 @errcode(i32 noundef 50331778) #10
  %23 = tail call i32 (ptr, ...) @errmsg(ptr noundef nonnull @.str.8, i32 noundef %4) #10
  tail call void @errfinish(ptr noundef nonnull @.str.2, i32 noundef 292, ptr noundef nonnull @__func__.be_lo_tell) #10
  unreachable

24:                                               ; preds = %17
  ret i64 %18
}